target datalayout = "e-m:e-p270:32:32-p271:32:32-p272:64:64-i64:64-i128:128-f80:128-n8:16:32:64-S128"
target triple = "x86_64-pc-linux-gnu"

%struct.TupleTableSlotOps = type { i64, ptr, ptr, ptr, ptr, ptr, ptr, ptr, ptr, ptr, ptr, ptr, ptr }
%struct.ExprEvalStep = type { i64, ptr, ptr, %union.anon }
%union.anon = type { %struct.anon.23 }
%struct.anon.23 = type { ptr, ptr, i32, i32, ptr, ptr }
%struct.ExprState = type { i32, i8, i8, i64, ptr, ptr, ptr, ptr, ptr, i32, i32, ptr, ptr, ptr, ptr, ptr, ptr, ptr }
%struct.Node = type { i32 }
%struct.ForEachState = type { ptr, i32 }
%struct.Var = type { %struct.Expr, i32, i16, i32, i32, i32, ptr, i32, i32, i32, i16, i32 }
%struct.Expr = type { i32 }
%struct.PlanState = type { i32, ptr, ptr, ptr, ptr, ptr, ptr, ptr, ptr, ptr, ptr, ptr, ptr, ptr, ptr, ptr, ptr, ptr, i8, ptr, ptr, ptr, ptr, ptr, i8, i8, i8, i8, i8, i8, i8, i8 }
%struct.ScanState = type { %struct.PlanState, ptr, ptr, ptr }
%struct.Plan = type { i32, i32, double, double, double, i32, i8, i8, i8, i32, ptr, ptr, ptr, ptr, ptr, ptr, ptr }
%struct.List = type { i32, i32, i32, ptr, [0 x %union.ListCell] }
%union.ListCell = type { ptr }
%struct.TargetEntry = type { %struct.Expr, ptr, i16, ptr, i32, i32, i16, i8 }
%struct.anon.1 = type { ptr, i8, i8, ptr, ptr }
%struct.SubqueryScanState = type { %struct.ScanState, ptr }
%struct.CteScanState = type { %struct.ScanState, i32, i32, ptr, ptr, ptr, i8 }

@TTSOpsVirtual = external constant %struct.TupleTableSlotOps, align 8

; Function Attrs: nounwind uwtable
define internal void @ExecInitWholeRowVar(ptr noundef %0, ptr noundef %1, ptr noundef %2) #0 {
  %4 = alloca ptr, align 8
  %5 = alloca ptr, align 8
  %6 = alloca ptr, align 8
  %7 = alloca ptr, align 8
  %8 = alloca ptr, align 8
  %9 = alloca i8, align 1
  %10 = alloca ptr, align 8
  %11 = alloca %struct.ForEachState, align 8
  %12 = alloca i32, align 4
  %13 = alloca ptr, align 8
  store ptr %0, ptr %4, align 8
  store ptr %1, ptr %5, align 8
  store ptr %2, ptr %6, align 8
  call void @llvm.lifetime.start.p0(i64 8, ptr %7) #8
  %14 = load ptr, ptr %6, align 8
  %15 = getelementptr inbounds nuw %struct.ExprState, ptr %14, i32 0, i32 11
  %16 = load ptr, ptr %15, align 8
  store ptr %16, ptr %7, align 8
  %17 = load ptr, ptr %4, align 8
  %18 = getelementptr inbounds nuw %struct.ExprEvalStep, ptr %17, i32 0, i32 0
  store i64 16, ptr %18, align 8
  %19 = load ptr, ptr %5, align 8
  %20 = load ptr, ptr %4, align 8
  %21 = getelementptr inbounds nuw %struct.ExprEvalStep, ptr %20, i32 0, i32 3
  %22 = getelementptr inbounds nuw %struct.anon.1, ptr %21, i32 0, i32 0
  store ptr %19, ptr %22, align 8
  %23 = load ptr, ptr %4, align 8
  %24 = getelementptr inbounds nuw %struct.ExprEvalStep, ptr %23, i32 0, i32 3
  %25 = getelementptr inbounds nuw %struct.anon.1, ptr %24, i32 0, i32 1
  store i8 1, ptr %25, align 8
  %26 = load ptr, ptr %4, align 8
  %27 = getelementptr inbounds nuw %struct.ExprEvalStep, ptr %26, i32 0, i32 3
  %28 = getelementptr inbounds nuw %struct.anon.1, ptr %27, i32 0, i32 2
  store i8 0, ptr %28, align 1
  %29 = load ptr, ptr %4, align 8
  %30 = getelementptr inbounds nuw %struct.ExprEvalStep, ptr %29, i32 0, i32 3
  %31 = getelementptr inbounds nuw %struct.anon.1, ptr %30, i32 0, i32 3
  store ptr null, ptr %31, align 8
  %32 = load ptr, ptr %4, align 8
  %33 = getelementptr inbounds nuw %struct.ExprEvalStep, ptr %32, i32 0, i32 3
  %34 = getelementptr inbounds nuw %struct.anon.1, ptr %33, i32 0, i32 4
  store ptr null, ptr %34, align 8
  %35 = load ptr, ptr %5, align 8
  %36 = getelementptr inbounds nuw %struct.Var, ptr %35, i32 0, i32 8
  %37 = load i32, ptr %36, align 4
  %38 = icmp eq i32 %37, 1
  br i1 %38, label %39, label %46

39:                                               ; preds = %3
  %40 = load ptr, ptr %6, align 8
  %41 = getelementptr inbounds nuw %struct.ExprState, ptr %40, i32 0, i32 1
  %42 = load i8, ptr %41, align 4
  %43 = zext i8 %42 to i32
  %44 = or i32 %43, 2
  %45 = trunc i32 %44 to i8
  store i8 %45, ptr %41, align 4
  br label %59

46:                                               ; preds = %3
  %47 = load ptr, ptr %5, align 8
  %48 = getelementptr inbounds nuw %struct.Var, ptr %47, i32 0, i32 8
  %49 = load i32, ptr %48, align 4
  %50 = icmp eq i32 %49, 2
  br i1 %50, label %51, label %58

51:                                               ; preds = %46
  %52 = load ptr, ptr %6, align 8
  %53 = getelementptr inbounds nuw %struct.ExprState, ptr %52, i32 0, i32 1
  %54 = load i8, ptr %53, align 4
  %55 = zext i8 %54 to i32
  %56 = or i32 %55, 4
  %57 = trunc i32 %56 to i8
  store i8 %57, ptr %53, align 4
  br label %58

58:                                               ; preds = %51, %46
  br label %59

59:                                               ; preds = %58, %39
  %60 = load ptr, ptr %7, align 8
  %61 = icmp ne ptr %60, null
  br i1 %61, label %62, label %149

62:                                               ; preds = %59
  call void @llvm.lifetime.start.p0(i64 8, ptr %8) #8
  store ptr null, ptr %8, align 8
  %63 = load ptr, ptr %7, align 8
  %64 = getelementptr inbounds nuw %struct.Node, ptr %63, i32 0, i32 0
  %65 = load i32, ptr %64, align 4
  switch i32 %65, label %74 [
    i32 410, label %66
    i32 414, label %70
  ]

66:                                               ; preds = %62
  %67 = load ptr, ptr %7, align 8
  %68 = getelementptr inbounds nuw %struct.SubqueryScanState, ptr %67, i32 0, i32 1
  %69 = load ptr, ptr %68, align 8
  store ptr %69, ptr %8, align 8
  br label %75

70:                                               ; preds = %62
  %71 = load ptr, ptr %7, align 8
  %72 = getelementptr inbounds nuw %struct.CteScanState, ptr %71, i32 0, i32 3
  %73 = load ptr, ptr %72, align 8
  store ptr %73, ptr %8, align 8
  br label %75

74:                                               ; preds = %62
  br label %75

75:                                               ; preds = %74, %70, %66
  %76 = load ptr, ptr %8, align 8
  %77 = icmp ne ptr %76, null
  br i1 %77, label %78, label %148

78:                                               ; preds = %75
  call void @llvm.lifetime.start.p0(i64 1, ptr %9) #8
  store i8 0, ptr %9, align 1
  call void @llvm.lifetime.start.p0(i64 8, ptr %10) #8
  call void @llvm.lifetime.start.p0(i64 16, ptr %11) #8
  %79 = getelementptr inbounds nuw %struct.ForEachState, ptr %11, i32 0, i32 0
  %80 = load ptr, ptr %8, align 8
  %81 = getelementptr inbounds nuw %struct.PlanState, ptr %80, i32 0, i32 1
  %82 = load ptr, ptr %81, align 8
  %83 = getelementptr inbounds nuw %struct.Plan, ptr %82, i32 0, i32 10
  %84 = load ptr, ptr %83, align 8
  store ptr %84, ptr %79, align 8
  %85 = getelementptr inbounds nuw %struct.ForEachState, ptr %11, i32 0, i32 1
  store i32 0, ptr %85, align 8
  %86 = getelementptr i8, ptr %11, i64 12
  call void @llvm.memset.p0.i64(ptr align 4 %86, i8 0, i64 4, i1 false)
  br label %87

87:                                               ; preds = %125, %78
  %88 = getelementptr inbounds nuw %struct.ForEachState, ptr %11, i32 0, i32 0
  %89 = load ptr, ptr %88, align 8
  %90 = icmp ne ptr %89, null
  br i1 %90, label %91, label %108

91:                                               ; preds = %87
  %92 = getelementptr inbounds nuw %struct.ForEachState, ptr %11, i32 0, i32 1
  %93 = load i32, ptr %92, align 8
  %94 = getelementptr inbounds nuw %struct.ForEachState, ptr %11, i32 0, i32 0
  %95 = load ptr, ptr %94, align 8
  %96 = getelementptr inbounds nuw %struct.List, ptr %95, i32 0, i32 1
  %97 = load i32, ptr %96, align 4
  %98 = icmp slt i32 %93, %97
  br i1 %98, label %99, label %108

99:                                               ; preds = %91
  %100 = getelementptr inbounds nuw %struct.ForEachState, ptr %11, i32 0, i32 0
  %101 = load ptr, ptr %100, align 8
  %102 = getelementptr inbounds nuw %struct.List, ptr %101, i32 0, i32 3
  %103 = load ptr, ptr %102, align 8
  %104 = getelementptr inbounds nuw %struct.ForEachState, ptr %11, i32 0, i32 1
  %105 = load i32, ptr %104, align 8
  %106 = sext i32 %105 to i64
  %107 = getelementptr inbounds %union.ListCell, ptr %103, i64 %106
  store ptr %107, ptr %10, align 8
  br label %109

108:                                              ; preds = %91, %87
  store ptr null, ptr %10, align 8
  br label %109

109:                                              ; preds = %108, %99
  %110 = phi i32 [ 1, %99 ], [ 0, %108 ]
  %111 = icmp ne i32 %110, 0
  br i1 %111, label %113, label %112

112:                                              ; preds = %109
  store i32 3, ptr %12, align 4
  br label %129

113:                                              ; preds = %109
  call void @llvm.lifetime.start.p0(i64 8, ptr %13) #8
  %114 = load ptr, ptr %10, align 8
  %115 = load ptr, ptr %114, align 8
  store ptr %115, ptr %13, align 8
  %116 = load ptr, ptr %13, align 8
  %117 = getelementptr inbounds nuw %struct.TargetEntry, ptr %116, i32 0, i32 7
  %118 = load i8, ptr %117, align 2, !range !4, !noundef !5
  %119 = trunc i8 %118 to i1
  br i1 %119, label %120, label %121

120:                                              ; preds = %113
  store i8 1, ptr %9, align 1
  store i32 3, ptr %12, align 4
  br label %122

121:                                              ; preds = %113
  store i32 0, ptr %12, align 4
  br label %122

122:                                              ; preds = %121, %120
  call void @llvm.lifetime.end.p0(i64 8, ptr %13) #8
  %123 = load i32, ptr %12, align 4
  switch i32 %123, label %129 [
    i32 0, label %124
  ]

124:                                              ; preds = %122
  br label %125

125:                                              ; preds = %124
  %126 = getelementptr inbounds nuw %struct.ForEachState, ptr %11, i32 0, i32 1
  %127 = load i32, ptr %126, align 8
  %128 = add i32 %127, 1
  store i32 %128, ptr %126, align 8
  br label %87, !llvm.loop !52

129:                                              ; preds = %122, %112
  call void @llvm.lifetime.end.p0(i64 16, ptr %11) #8
  br label %130

130:                                              ; preds = %129
  %131 = load i8, ptr %9, align 1, !range !4, !noundef !5
  %132 = trunc i8 %131 to i1
  br i1 %132, label %133, label %147

133:                                              ; preds = %130
  %134 = load ptr, ptr %8, align 8
  %135 = getelementptr inbounds nuw %struct.PlanState, ptr %134, i32 0, i32 1
  %136 = load ptr, ptr %135, align 8
  %137 = getelementptr inbounds nuw %struct.Plan, ptr %136, i32 0, i32 10
  %138 = load ptr, ptr %137, align 8
  %139 = load ptr, ptr %7, align 8
  %140 = getelementptr inbounds nuw %struct.PlanState, ptr %139, i32 0, i32 2
  %141 = load ptr, ptr %140, align 8
  %142 = call ptr @ExecInitExtraTupleSlot(ptr noundef %141, ptr noundef null, ptr noundef @TTSOpsVirtual)
  %143 = call ptr @ExecInitJunkFilter(ptr noundef %138, ptr noundef %142)
  %144 = load ptr, ptr %4, align 8
  %145 = getelementptr inbounds nuw %struct.ExprEvalStep, ptr %144, i32 0, i32 3
  %146 = getelementptr inbounds nuw %struct.anon.1, ptr %145, i32 0, i32 4
  store ptr %143, ptr %146, align 8
  br label %147

147:                                              ; preds = %133, %130
  call void @llvm.lifetime.end.p0(i64 8, ptr %10) #8
  call void @llvm.lifetime.end.p0(i64 1, ptr %9) #8
  br label %148

148:                                              ; preds = %147, %75
  call void @llvm.lifetime.end.p0(i64 8, ptr %8) #8
  br label %149

149:                                              ; preds = %148, %59
  call void @llvm.lifetime.end.p0(i64 8, ptr %7) #8
  ret void
}