; Function Attrs: nounwind uwtable
define internal fastcc void @ExecInitWholeRowVar(ptr noundef nonnull writeonly captures(none) initializes((0, 8), (24, 34), (40, 56)) %0, ptr noundef %1, ptr noundef captures(none) %2) unnamed_addr #0 {
  %4 = getelementptr inbounds nuw i8, ptr %2, i64 64
  %5 = load ptr, ptr %4, align 8
  store i64 16, ptr %0, align 8
  %6 = getelementptr inbounds nuw i8, ptr %0, i64 24
  store ptr %1, ptr %6, align 8
  %7 = getelementptr inbounds nuw i8, ptr %0, i64 32
  store i8 1, ptr %7, align 8
  %8 = getelementptr inbounds nuw i8, ptr %0, i64 33
  store i8 0, ptr %8, align 1
  %9 = getelementptr inbounds nuw i8, ptr %0, i64 40
  %10 = getelementptr inbounds nuw i8, ptr %0, i64 48
  %11 = getelementptr inbounds nuw i8, ptr %1, i64 36
  tail call void @llvm.memset.p0.i64(ptr noundef nonnull align 8 dereferenceable(16) %9, i8 0, i64 16, i1 false)
  %12 = load i32, ptr %11, align 4
  switch i32 %12, label %17 [
    i32 1, label %.sink.split
    i32 2, label %13
  ]

13:                                               ; preds = %3
  br label %.sink.split

.sink.split:                                      ; preds = %3, %13
  %.sink49 = phi i8 [ 4, %13 ], [ 2, %3 ]
  %14 = getelementptr inbounds nuw i8, ptr %2, i64 4
  %15 = load i8, ptr %14, align 4
  %16 = or i8 %15, %.sink49
  store i8 %16, ptr %14, align 4
  br label %17

17:                                               ; preds = %.sink.split, %3
  %.not = icmp eq ptr %5, null
  br i1 %.not, label %.thread, label %18

18:                                               ; preds = %17
  %19 = load i32, ptr %5, align 4
  switch i32 %19, label %.thread [
    i32 410, label %21
    i32 414, label %20
  ]

20:                                               ; preds = %18
  br label %21

21:                                               ; preds = %18, %20
  %.sink = phi i64 [ 232, %20 ], [ 224, %18 ]
  %22 = getelementptr inbounds nuw i8, ptr %5, i64 %.sink
  %.0 = load ptr, ptr %22, align 8
  %.not34 = icmp eq ptr %.0, null
  br i1 %.not34, label %.thread, label %23

23:                                               ; preds = %21
  %24 = getelementptr inbounds nuw i8, ptr %.0, i64 8
  %25 = load ptr, ptr %24, align 8
  %26 = getelementptr inbounds nuw i8, ptr %25, i64 48
  %27 = load ptr, ptr %26, align 8
  %.not35 = icmp eq ptr %27, null
  br i1 %.not35, label %.thread, label %.lr.ph

.lr.ph:                                           ; preds = %23
  %28 = getelementptr inbounds nuw i8, ptr %27, i64 4
  %29 = load i32, ptr %28, align 4
  %30 = icmp sgt i32 %29, 0
  br i1 %30, label %.lr.ph45, label %.thread

.lr.ph45:                                         ; preds = %.lr.ph
  %31 = getelementptr inbounds nuw i8, ptr %27, i64 16
  %32 = load ptr, ptr %31, align 8
  %wide.trip.count = zext nneg i32 %29 to i64
  br label %34

33:                                               ; preds = %34
  %indvars.iv.next = add nuw nsw i64 %indvars.iv, 1
  %exitcond.not = icmp eq i64 %indvars.iv.next, %wide.trip.count
  br i1 %exitcond.not, label %.thread, label %34

34:                                               ; preds = %.lr.ph45, %33
  %indvars.iv = phi i64 [ 0, %.lr.ph45 ], [ %indvars.iv.next, %33 ]
  %35 = getelementptr inbounds nuw %union.ListCell, ptr %32, i64 %indvars.iv
  %36 = load ptr, ptr %35, align 8
  %37 = getelementptr inbounds nuw i8, ptr %36, i64 42
  %38 = load i8, ptr %37, align 2, !range !4, !noundef !5
  %39 = trunc nuw i8 %38 to i1
  br i1 %39, label %.critedge, label %33

.critedge:                                        ; preds = %34
  %40 = getelementptr inbounds nuw i8, ptr %5, i64 16
  %41 = load ptr, ptr %40, align 8
  %42 = tail call ptr @ExecInitExtraTupleSlot(ptr noundef %41, ptr noundef null, ptr noundef nonnull @TTSOpsVirtual) #10
  %43 = tail call ptr @ExecInitJunkFilter(ptr noundef nonnull %27, ptr noundef %42) #10
  store ptr %43, ptr %10, align 8
  br label %.thread

.thread:                                          ; preds = %33, %23, %.lr.ph, %18, %21, %.critedge, %17
  ret void
}